; Function Attrs: mustprogress uwtable
define noundef zeroext i1 @_ZN5draco33SequentialIntegerAttributeDecoder34TransformAttributeToOriginalFormatERKSt6vectorINS_9IndexTypeIjNS_20PointIndex_tag_type_EEESaIS4_EE(ptr noundef nonnull align 8 dereferenceable(48) %0, ptr noundef nonnull readonly align 8 captures(none) dereferenceable(24) %1) unnamed_addr #3 align 2 {
  %3 = getelementptr inbounds nuw i8, ptr %0, i64 8
  %4 = load ptr, ptr %3, align 8, !tbaa !11
  %.not = icmp eq ptr %4, null
  br i1 %.not, label %9, label %5

5:                                                ; preds = %2
  %6 = getelementptr inbounds nuw i8, ptr %4, i64 72
  %7 = load i8, ptr %6, align 8, !tbaa !22
  %8 = icmp ult i8 %7, 2
  br i1 %8, label %22, label %9

9:                                                ; preds = %5, %2
  %10 = getelementptr inbounds nuw i8, ptr %1, i64 8
  %11 = load ptr, ptr %10, align 8, !tbaa !37
  %12 = load ptr, ptr %1, align 8, !tbaa !40
  %13 = ptrtoint ptr %11 to i64
  %14 = ptrtoint ptr %12 to i64
  %15 = sub i64 %13, %14
  %16 = lshr exact i64 %15, 2
  %17 = trunc i64 %16 to i32
  %18 = load ptr, ptr %0, align 8, !tbaa !3
  %19 = getelementptr inbounds nuw i8, ptr %18, i64 96
  %20 = load ptr, ptr %19, align 8
  %21 = tail call noundef zeroext i1 %20(ptr noundef nonnull align 8 dereferenceable(48) %0, i32 noundef %17)
  br label %22

22:                                               ; preds = %5, %9
  %.0 = phi i1 [ %21, %9 ], [ true, %5 ]
  ret i1 %.0
}